target datalayout = "e-m:e-p270:32:32-p271:32:32-p272:64:64-i64:64-i128:128-f80:128-n8:16:32:64-S128"
target triple = "x86_64-pc-linux-gnu"

%struct.AVFloatDSPContext = type { ptr, ptr, ptr, ptr, ptr, ptr, ptr, ptr, ptr, ptr, ptr, ptr }

; Function Attrs: cold nounwind optsize uwtable
define ptr @avpriv_float_dsp_alloc(i32 noundef %0) #3 {
  %2 = alloca ptr, align 8
  %3 = alloca i32, align 4
  %4 = alloca ptr, align 8
  %5 = alloca i32, align 4
  store i32 %0, ptr %3, align 4, !tbaa !15
  call void @llvm.lifetime.start.p0(i64 8, ptr %4) #5
  %6 = call noalias ptr @av_mallocz(i64 noundef 96)
  store ptr %6, ptr %4, align 8, !tbaa !17
  %7 = load ptr, ptr %4, align 8, !tbaa !17
  %8 = icmp ne ptr %7, null
  br i1 %8, label %10, label %9

9:                                                ; preds = %1
  store ptr null, ptr %2, align 8
  store i32 1, ptr %5, align 4
  br label %36

10:                                               ; preds = %1
  %11 = load ptr, ptr %4, align 8, !tbaa !17
  %12 = getelementptr inbounds nuw %struct.AVFloatDSPContext, ptr %11, i32 0, i32 0
  store ptr @vector_fmul_c, ptr %12, align 8, !tbaa !19
  %13 = load ptr, ptr %4, align 8, !tbaa !17
  %14 = getelementptr inbounds nuw %struct.AVFloatDSPContext, ptr %13, i32 0, i32 10
  store ptr @vector_dmul_c, ptr %14, align 8, !tbaa !21
  %15 = load ptr, ptr %4, align 8, !tbaa !17
  %16 = getelementptr inbounds nuw %struct.AVFloatDSPContext, ptr %15, i32 0, i32 1
  store ptr @vector_fmac_scalar_c, ptr %16, align 8, !tbaa !22
  %17 = load ptr, ptr %4, align 8, !tbaa !17
  %18 = getelementptr inbounds nuw %struct.AVFloatDSPContext, ptr %17, i32 0, i32 3
  store ptr @vector_fmul_scalar_c, ptr %18, align 8, !tbaa !23
  %19 = load ptr, ptr %4, align 8, !tbaa !17
  %20 = getelementptr inbounds nuw %struct.AVFloatDSPContext, ptr %19, i32 0, i32 2
  store ptr @vector_dmac_scalar_c, ptr %20, align 8, !tbaa !24
  %21 = load ptr, ptr %4, align 8, !tbaa !17
  %22 = getelementptr inbounds nuw %struct.AVFloatDSPContext, ptr %21, i32 0, i32 4
  store ptr @vector_dmul_scalar_c, ptr %22, align 8, !tbaa !25
  %23 = load ptr, ptr %4, align 8, !tbaa !17
  %24 = getelementptr inbounds nuw %struct.AVFloatDSPContext, ptr %23, i32 0, i32 5
  store ptr @vector_fmul_window_c, ptr %24, align 8, !tbaa !26
  %25 = load ptr, ptr %4, align 8, !tbaa !17
  %26 = getelementptr inbounds nuw %struct.AVFloatDSPContext, ptr %25, i32 0, i32 6
  store ptr @vector_fmul_add_c, ptr %26, align 8, !tbaa !27
  %27 = load ptr, ptr %4, align 8, !tbaa !17
  %28 = getelementptr inbounds nuw %struct.AVFloatDSPContext, ptr %27, i32 0, i32 7
  store ptr @vector_fmul_reverse_c, ptr %28, align 8, !tbaa !28
  %29 = load ptr, ptr %4, align 8, !tbaa !17
  %30 = getelementptr inbounds nuw %struct.AVFloatDSPContext, ptr %29, i32 0, i32 8
  store ptr @butterflies_float_c, ptr %30, align 8, !tbaa !29
  %31 = load ptr, ptr %4, align 8, !tbaa !17
  %32 = getelementptr inbounds nuw %struct.AVFloatDSPContext, ptr %31, i32 0, i32 9
  store ptr @ff_scalarproduct_float_c, ptr %32, align 8, !tbaa !30
  %33 = load ptr, ptr %4, align 8, !tbaa !17
  %34 = getelementptr inbounds nuw %struct.AVFloatDSPContext, ptr %33, i32 0, i32 11
  store ptr @ff_scalarproduct_double_c, ptr %34, align 8, !tbaa !31
  %35 = load ptr, ptr %4, align 8, !tbaa !17
  store ptr %35, ptr %2, align 8
  store i32 1, ptr %5, align 4
  br label %36

36:                                               ; preds = %10, %9
  call void @llvm.lifetime.end.p0(i64 8, ptr %4) #5
  %37 = load ptr, ptr %2, align 8
  ret ptr %37
}