; Function Attrs: cold nounwind optsize uwtable
define noalias ptr @avpriv_float_dsp_alloc(i32 noundef %0) local_unnamed_addr #2 {
  %2 = tail call noalias ptr @av_mallocz(i64 noundef 96) #5
  %.not = icmp eq ptr %2, null
  br i1 %.not, label %15, label %3

3:                                                ; preds = %1
  store ptr @vector_fmul_c, ptr %2, align 8, !tbaa !10
  %4 = getelementptr inbounds nuw i8, ptr %2, i64 80
  store ptr @vector_dmul_c, ptr %4, align 8, !tbaa !13
  %5 = getelementptr inbounds nuw i8, ptr %2, i64 8
  store ptr @vector_fmac_scalar_c, ptr %5, align 8, !tbaa !14
  %6 = getelementptr inbounds nuw i8, ptr %2, i64 24
  store ptr @vector_fmul_scalar_c, ptr %6, align 8, !tbaa !15
  %7 = getelementptr inbounds nuw i8, ptr %2, i64 16
  store ptr @vector_dmac_scalar_c, ptr %7, align 8, !tbaa !16
  %8 = getelementptr inbounds nuw i8, ptr %2, i64 32
  store ptr @vector_dmul_scalar_c, ptr %8, align 8, !tbaa !17
  %9 = getelementptr inbounds nuw i8, ptr %2, i64 40
  store ptr @vector_fmul_window_c, ptr %9, align 8, !tbaa !18
  %10 = getelementptr inbounds nuw i8, ptr %2, i64 48
  store ptr @vector_fmul_add_c, ptr %10, align 8, !tbaa !19
  %11 = getelementptr inbounds nuw i8, ptr %2, i64 56
  store ptr @vector_fmul_reverse_c, ptr %11, align 8, !tbaa !20
  %12 = getelementptr inbounds nuw i8, ptr %2, i64 64
  store ptr @butterflies_float_c, ptr %12, align 8, !tbaa !21
  %13 = getelementptr inbounds nuw i8, ptr %2, i64 72
  store ptr @ff_scalarproduct_float_c, ptr %13, align 8, !tbaa !22
  %14 = getelementptr inbounds nuw i8, ptr %2, i64 88
  store ptr @ff_scalarproduct_double_c, ptr %14, align 8, !tbaa !23
  br label %15

15:                                               ; preds = %1, %3
  ret ptr %2
}